target datalayout = "e-m:e-p270:32:32-p271:32:32-p272:64:64-i64:64-i128:128-f80:128-n8:16:32:64-S128"
target triple = "x86_64-pc-linux-gnu"

%struct.tls_buffer_st = type { ptr, i64, i64, i64, i64, i32, i32 }
%struct.tls_rl_record_st = type { i32, i32, i64, i64, i64, ptr, ptr, ptr, i16, [8 x i8] }
%struct.ossl_record_layer_st = type { ptr, ptr, i32, i32, i32, i32, i32, ptr, i16, ptr, ptr, ptr, i64, i32, [33 x %struct.tls_buffer_st], i64, i64, %struct.tls_buffer_st, [32 x %struct.tls_rl_record_st], i64, i64, i64, i32, ptr, i64, [8 x i8], i32, i32, i64, i32, ptr, ptr, i64, ptr, ptr, i32, i32, i32, i64, i64, i64, [64 x i8], i32, i32, i32, ptr, ptr, i32, i32, i64, ptr, ptr, %struct.dtls_bitmap_st, %struct.dtls_bitmap_st, i32, ptr, ptr, ptr, ptr, ptr, i64, ptr }
%struct.dtls_bitmap_st = type { i64, [8 x i8] }
%struct.wpacket_st = type { ptr, ptr, i64, i64, i64, ptr, i8 }
%struct.ossl_record_template_st = type { i8, i32, ptr, i64 }

@.str = private unnamed_addr constant [43 x i8] c"../openssl/ssl/record/methods/tls_common.c\00", align 1
@__func__.tls_initialise_write_packets_default = private unnamed_addr constant [37 x i8] c"tls_initialise_write_packets_default\00", align 1

; Function Attrs: nounwind uwtable
define i32 @tls_initialise_write_packets_default(ptr noundef %0, ptr noundef %1, i64 noundef %2, ptr noundef %3, ptr noundef %4, ptr noundef %5, ptr noundef %6) #0 {
  %8 = alloca i32, align 4
  %9 = alloca ptr, align 8
  %10 = alloca ptr, align 8
  %11 = alloca i64, align 8
  %12 = alloca ptr, align 8
  %13 = alloca ptr, align 8
  %14 = alloca ptr, align 8
  %15 = alloca ptr, align 8
  %16 = alloca ptr, align 8
  %17 = alloca i64, align 8
  %18 = alloca i64, align 8
  %19 = alloca ptr, align 8
  %20 = alloca i32, align 4
  store ptr %0, ptr %9, align 8, !tbaa !16
  store ptr %1, ptr %10, align 8, !tbaa !155
  store i64 %2, ptr %11, align 8, !tbaa !38
  store ptr %3, ptr %12, align 8, !tbaa !155
  store ptr %4, ptr %13, align 8, !tbaa !157
  store ptr %5, ptr %14, align 8, !tbaa !3
  store ptr %6, ptr %15, align 8, !tbaa !58
  call void @llvm.lifetime.start.p0(i64 8, ptr %16) #10
  call void @llvm.lifetime.start.p0(i64 8, ptr %17) #10
  call void @llvm.lifetime.start.p0(i64 8, ptr %18) #10
  call void @llvm.lifetime.start.p0(i64 8, ptr %19) #10
  store i64 0, ptr %17, align 8, !tbaa !38
  br label %21

21:                                               ; preds = %81, %7
  %22 = load i64, ptr %17, align 8, !tbaa !38
  %23 = load i64, ptr %11, align 8, !tbaa !38
  %24 = icmp ult i64 %22, %23
  br i1 %24, label %25, label %84

25:                                               ; preds = %21
  %26 = load ptr, ptr %13, align 8, !tbaa !157
  %27 = load i64, ptr %17, align 8, !tbaa !38
  %28 = getelementptr inbounds nuw %struct.wpacket_st, ptr %26, i64 %27
  store ptr %28, ptr %16, align 8, !tbaa !157
  %29 = load ptr, ptr %14, align 8, !tbaa !3
  %30 = load i64, ptr %17, align 8, !tbaa !38
  %31 = getelementptr inbounds nuw %struct.tls_buffer_st, ptr %29, i64 %30
  store ptr %31, ptr %19, align 8, !tbaa !3
  %32 = load ptr, ptr %10, align 8, !tbaa !155
  %33 = load i64, ptr %17, align 8, !tbaa !38
  %34 = getelementptr inbounds nuw %struct.ossl_record_template_st, ptr %32, i64 %33
  %35 = getelementptr inbounds nuw %struct.ossl_record_template_st, ptr %34, i32 0, i32 0
  %36 = load i8, ptr %35, align 8, !tbaa !159
  %37 = zext i8 %36 to i32
  %38 = load ptr, ptr %19, align 8, !tbaa !3
  %39 = getelementptr inbounds nuw %struct.tls_buffer_st, ptr %38, i32 0, i32 6
  store i32 %37, ptr %39, align 4, !tbaa !161
  %40 = load ptr, ptr %19, align 8, !tbaa !3
  %41 = getelementptr inbounds nuw %struct.tls_buffer_st, ptr %40, i32 0, i32 0
  %42 = load ptr, ptr %41, align 8, !tbaa !8
  %43 = ptrtoint ptr %42 to i64
  store i64 %43, ptr %18, align 8, !tbaa !38
  %44 = load ptr, ptr %9, align 8, !tbaa !16
  %45 = getelementptr inbounds nuw %struct.ossl_record_layer_st, ptr %44, i32 0, i32 2
  %46 = load i32, ptr %45, align 8, !tbaa !43
  %47 = icmp ne i32 %46, 0
  %48 = select i1 %47, i32 13, i32 5
  %49 = sext i32 %48 to i64
  %50 = load i64, ptr %18, align 8, !tbaa !38
  %51 = add i64 %50, %49
  store i64 %51, ptr %18, align 8, !tbaa !38
  %52 = load i64, ptr %18, align 8, !tbaa !38
  %53 = sub i64 %52, 1
  %54 = urem i64 %53, 8
  %55 = sub i64 7, %54
  store i64 %55, ptr %18, align 8, !tbaa !38
  %56 = load i64, ptr %18, align 8, !tbaa !38
  %57 = load ptr, ptr %19, align 8, !tbaa !3
  %58 = getelementptr inbounds nuw %struct.tls_buffer_st, ptr %57, i32 0, i32 3
  store i64 %56, ptr %58, align 8, !tbaa !61
  %59 = load ptr, ptr %16, align 8, !tbaa !157
  %60 = load ptr, ptr %19, align 8, !tbaa !3
  %61 = getelementptr inbounds nuw %struct.tls_buffer_st, ptr %60, i32 0, i32 0
  %62 = load ptr, ptr %61, align 8, !tbaa !8
  %63 = load ptr, ptr %19, align 8, !tbaa !3
  %64 = getelementptr inbounds nuw %struct.tls_buffer_st, ptr %63, i32 0, i32 2
  %65 = load i64, ptr %64, align 8, !tbaa !48
  %66 = call i32 @WPACKET_init_static_len(ptr noundef %59, ptr noundef %62, i64 noundef %65, i64 noundef 0)
  %67 = icmp ne i32 %66, 0
  br i1 %67, label %70, label %68

68:                                               ; preds = %25
  call void @ERR_new()
  call void @ERR_set_debug(ptr noundef @.str, i32 noundef 1588, ptr noundef @__func__.tls_initialise_write_packets_default)
  %69 = load ptr, ptr %9, align 8, !tbaa !16
  call void (ptr, i32, i32, ptr, ...) @ossl_rlayer_fatal(ptr noundef %69, i32 noundef 80, i32 noundef 786691, ptr noundef null)
  store i32 0, ptr %8, align 4
  store i32 1, ptr %20, align 4
  br label %85

70:                                               ; preds = %25
  %71 = load ptr, ptr %15, align 8, !tbaa !58
  %72 = load i64, ptr %71, align 8, !tbaa !38
  %73 = add i64 %72, 1
  store i64 %73, ptr %71, align 8, !tbaa !38
  %74 = load ptr, ptr %16, align 8, !tbaa !157
  %75 = load i64, ptr %18, align 8, !tbaa !38
  %76 = call i32 @WPACKET_allocate_bytes(ptr noundef %74, i64 noundef %75, ptr noundef null)
  %77 = icmp ne i32 %76, 0
  br i1 %77, label %80, label %78

78:                                               ; preds = %70
  call void @ERR_new()
  call void @ERR_set_debug(ptr noundef @.str, i32 noundef 1593, ptr noundef @__func__.tls_initialise_write_packets_default)
  %79 = load ptr, ptr %9, align 8, !tbaa !16
  call void (ptr, i32, i32, ptr, ...) @ossl_rlayer_fatal(ptr noundef %79, i32 noundef 80, i32 noundef 786691, ptr noundef null)
  store i32 0, ptr %8, align 4
  store i32 1, ptr %20, align 4
  br label %85

80:                                               ; preds = %70
  br label %81

81:                                               ; preds = %80
  %82 = load i64, ptr %17, align 8, !tbaa !38
  %83 = add i64 %82, 1
  store i64 %83, ptr %17, align 8, !tbaa !38
  br label %21, !llvm.loop !162

84:                                               ; preds = %21
  store i32 1, ptr %8, align 4
  store i32 1, ptr %20, align 4
  br label %85

85:                                               ; preds = %84, %78, %68
  call void @llvm.lifetime.end.p0(i64 8, ptr %19) #10
  call void @llvm.lifetime.end.p0(i64 8, ptr %18) #10
  call void @llvm.lifetime.end.p0(i64 8, ptr %17) #10
  call void @llvm.lifetime.end.p0(i64 8, ptr %16) #10
  %86 = load i32, ptr %8, align 4
  ret i32 %86
}