; Function Attrs: nounwind uwtable
define range(i32 0, 2) i32 @tls_initialise_write_packets_default(ptr noundef writeonly captures(none) %0, ptr noundef readonly captures(none) %1, i64 noundef %2, ptr noundef readnone captures(none) %3, ptr noundef %4, ptr noundef captures(none) %5, ptr noundef captures(none) %6) local_unnamed_addr #0 {
  %.not27 = icmp eq i64 %2, 0
  br i1 %.not27, label %.loopexit, label %.lr.ph

8:                                                ; preds = %24
  %9 = add nuw i64 %.02426, 1
  %exitcond.not = icmp eq i64 %9, %2
  br i1 %exitcond.not, label %.loopexit, label %.lr.ph, !llvm.loop !126

.lr.ph:                                           ; preds = %7, %8
  %.02426 = phi i64 [ %9, %8 ], [ 0, %7 ]
  %10 = getelementptr inbounds nuw %struct.wpacket_st, ptr %4, i64 %.02426
  %11 = getelementptr inbounds nuw %struct.tls_buffer_st, ptr %5, i64 %.02426
  %12 = getelementptr inbounds nuw %struct.ossl_record_template_st, ptr %1, i64 %.02426
  %13 = load i8, ptr %12, align 8, !tbaa !127
  %14 = zext i8 %13 to i32
  %15 = getelementptr inbounds nuw i8, ptr %11, i64 44
  store i32 %14, ptr %15, align 4, !tbaa !129
  %16 = load ptr, ptr %11, align 8, !tbaa !3
  %17 = ptrtoint ptr %16 to i64
  %18 = and i64 %17, 7
  %19 = xor i64 %18, 3
  %20 = getelementptr inbounds nuw i8, ptr %11, i64 24
  store i64 %19, ptr %20, align 8, !tbaa !47
  %21 = getelementptr inbounds nuw i8, ptr %11, i64 16
  %22 = load i64, ptr %21, align 8, !tbaa !37
  %23 = tail call i32 @WPACKET_init_static_len(ptr noundef %10, ptr noundef %16, i64 noundef %22, i64 noundef 0) #13
  %.not = icmp eq i32 %23, 0
  br i1 %.not, label %.loopexit.sink.split, label %24

24:                                               ; preds = %.lr.ph
  %25 = load i64, ptr %6, align 8, !tbaa !24
  %26 = add i64 %25, 1
  store i64 %26, ptr %6, align 8, !tbaa !24
  %27 = tail call i32 @WPACKET_allocate_bytes(ptr noundef %10, i64 noundef %19, ptr noundef null) #13
  %.not25 = icmp eq i32 %27, 0
  br i1 %.not25, label %.loopexit.sink.split, label %8

.loopexit.sink.split:                             ; preds = %24, %.lr.ph
  %.sink = phi i32 [ 1588, %.lr.ph ], [ 1593, %24 ]
  tail call void @ERR_new() #13
  tail call void @ERR_set_debug(ptr noundef nonnull @.str, i32 noundef %.sink, ptr noundef nonnull @__func__.tls_initialise_write_packets_default) #13
  tail call void (ptr, i32, i32, ptr, ...) @ossl_rlayer_fatal(ptr noundef %0, i32 noundef 80, i32 noundef 786691, ptr noundef null)
  br label %.loopexit

.loopexit:                                        ; preds = %8, %.loopexit.sink.split, %7
  %.0 = phi i32 [ 1, %7 ], [ 0, %.loopexit.sink.split ], [ 1, %8 ]
  ret i32 %.0
}